target datalayout = "e-m:e-p270:32:32-p271:32:32-p272:64:64-i64:64-i128:128-f80:128-n8:16:32:64-S128"
target triple = "x86_64-unknown-linux-gnu"

%union.anon.0 = type { %struct.QTailQLink }
%struct.QTailQLink = type { ptr, ptr }
%struct.StatsCallbacks = type { i32, ptr, ptr, %union.anon }
%union.anon = type { %struct.QTailQLink }

@stats_callbacks = internal global %union.anon.0 { %struct.QTailQLink { ptr null, ptr @stats_callbacks } }, align 8

; Function Attrs: nounwind sspstrong uwtable
define dso_local void @add_stats_callbacks(i32 noundef %provider, ptr noundef %stats_fn, ptr noundef %schemas_fn) #0 {
entry:
  %provider.addr = alloca i32, align 4
  %stats_fn.addr = alloca ptr, align 8
  %schemas_fn.addr = alloca ptr, align 8
  %entry1 = alloca ptr, align 8
  store i32 %provider, ptr %provider.addr, align 4
  store ptr %stats_fn, ptr %stats_fn.addr, align 8
  store ptr %schemas_fn, ptr %schemas_fn.addr, align 8
  %call = call noalias ptr @g_malloc_n(i64 noundef 1, i64 noundef 40) #5
  store ptr %call, ptr %entry1, align 8
  %0 = load i32, ptr %provider.addr, align 4
  %1 = load ptr, ptr %entry1, align 8
  %provider2 = getelementptr inbounds %struct.StatsCallbacks, ptr %1, i32 0, i32 0
  store i32 %0, ptr %provider2, align 8
  %2 = load ptr, ptr %stats_fn.addr, align 8
  %3 = load ptr, ptr %entry1, align 8
  %stats_cb = getelementptr inbounds %struct.StatsCallbacks, ptr %3, i32 0, i32 1
  store ptr %2, ptr %stats_cb, align 8
  %4 = load ptr, ptr %schemas_fn.addr, align 8
  %5 = load ptr, ptr %entry1, align 8
  %schemas_cb = getelementptr inbounds %struct.StatsCallbacks, ptr %5, i32 0, i32 2
  store ptr %4, ptr %schemas_cb, align 8
  br label %do.body

do.body:                                          ; preds = %entry
  %6 = load ptr, ptr %entry1, align 8
  %next = getelementptr inbounds %struct.StatsCallbacks, ptr %6, i32 0, i32 3
  store ptr null, ptr %next, align 8
  %7 = getelementptr inbounds %struct.QTailQLink, ptr @stats_callbacks, i32 0, i32 1
  %8 = load ptr, ptr %7, align 8
  %9 = load ptr, ptr %entry1, align 8
  %next3 = getelementptr inbounds %struct.StatsCallbacks, ptr %9, i32 0, i32 3
  %tql_prev = getelementptr inbounds %struct.QTailQLink, ptr %next3, i32 0, i32 1
  store ptr %8, ptr %tql_prev, align 8
  %10 = load ptr, ptr %entry1, align 8
  %11 = getelementptr inbounds %struct.QTailQLink, ptr @stats_callbacks, i32 0, i32 1
  %12 = load ptr, ptr %11, align 8
  %tql_next = getelementptr inbounds %struct.QTailQLink, ptr %12, i32 0, i32 0
  store ptr %10, ptr %tql_next, align 8
  %13 = load ptr, ptr %entry1, align 8
  %next4 = getelementptr inbounds %struct.StatsCallbacks, ptr %13, i32 0, i32 3
  %14 = getelementptr inbounds %struct.QTailQLink, ptr @stats_callbacks, i32 0, i32 1
  store ptr %next4, ptr %14, align 8
  br label %do.end

do.end:                                           ; preds = %do.body
  ret void
}