; Function Attrs: nounwind sspstrong uwtable
define dso_local void @add_stats_callbacks(i32 noundef %provider, ptr noundef %stats_fn, ptr noundef %schemas_fn) local_unnamed_addr #0 {
entry:
  %call = tail call noalias dereferenceable_or_null(40) ptr @g_malloc_n(i64 noundef 1, i64 noundef 40) #6
  store i32 %provider, ptr %call, align 8
  %stats_cb = getelementptr inbounds nuw i8, ptr %call, i64 8
  store ptr %stats_fn, ptr %stats_cb, align 8
  %schemas_cb = getelementptr inbounds nuw i8, ptr %call, i64 16
  store ptr %schemas_fn, ptr %schemas_cb, align 8
  %next = getelementptr inbounds nuw i8, ptr %call, i64 24
  store ptr null, ptr %next, align 8
  %0 = load ptr, ptr getelementptr inbounds nuw (i8, ptr @stats_callbacks, i64 8), align 8
  %tql_prev = getelementptr inbounds nuw i8, ptr %call, i64 32
  store ptr %0, ptr %tql_prev, align 8
  store ptr %call, ptr %0, align 8
  store ptr %next, ptr getelementptr inbounds nuw (i8, ptr @stats_callbacks, i64 8), align 8
  ret void
}